; Function Attrs: mustprogress nounwind uwtable
define hidden void @_ZN25InterpreterMacroAssembler6push_dE11XMMRegister(ptr noundef nonnull align 8 dereferenceable(48) %0, i32 %1) local_unnamed_addr #0 align 2 {
  %3 = alloca %class.Address, align 8
  %4 = alloca %class.Address, align 8
  %5 = alloca %class.Address, align 16
  tail call void @_ZN14MacroAssembler6subptrE8Registeri(ptr noundef nonnull align 8 dereferenceable(40) %0, i32 4, i32 noundef 16) #8
  store <4 x i32> <i32 4, i32 -1, i32 -1, i32 -1>, ptr %5, align 16
  %6 = getelementptr inbounds i8, ptr %5, i64 16
  store i32 0, ptr %6, align 16
  %7 = getelementptr inbounds i8, ptr %5, i64 20
  store i8 0, ptr %7, align 4
  %8 = getelementptr inbounds i8, ptr %5, i64 24
  store ptr getelementptr inbounds inrange(-16, 72) (i8, ptr @_ZTV10Relocation, i64 16), ptr %8, align 8
  %9 = getelementptr inbounds i8, ptr %5, i64 32
  store ptr null, ptr %9, align 16
  %10 = getelementptr inbounds i8, ptr %5, i64 40
  store i32 0, ptr %10, align 8
  call void @llvm.lifetime.start.p0(i64 64, ptr nonnull %4)
  call void @llvm.memcpy.p0.p0.i64(ptr noundef nonnull align 8 dereferenceable(21) %4, ptr noundef nonnull align 16 dereferenceable(21) %5, i64 21, i1 false)
  %11 = getelementptr inbounds i8, ptr %4, i64 24
  %12 = load ptr, ptr getelementptr inbounds inrange(-32, 56) (i8, ptr @_ZTV10Relocation, i64 32), align 8
  call void %12(ptr noundef nonnull align 8 dereferenceable(20) %8, ptr noundef nonnull align 8 dereferenceable(40) %11) #8
  call void @llvm.lifetime.start.p0(i64 64, ptr nonnull %3)
  call void @llvm.memcpy.p0.p0.i64(ptr noundef nonnull align 8 dereferenceable(21) %3, ptr noundef nonnull align 8 dereferenceable(21) %4, i64 21, i1 false)
  %13 = getelementptr inbounds i8, ptr %3, i64 24
  %14 = load ptr, ptr %11, align 8
  %15 = getelementptr inbounds i8, ptr %14, i64 16
  %16 = load ptr, ptr %15, align 8
  call void %16(ptr noundef nonnull align 8 dereferenceable(20) %11, ptr noundef nonnull align 8 dereferenceable(40) %13) #8
  call void @_ZN9Assembler5movsdE7Address11XMMRegister(ptr noundef nonnull align 8 dereferenceable(40) %0, ptr noundef nonnull %3, i32 %1) #8
  call void @llvm.lifetime.end.p0(i64 64, ptr nonnull %3)
  call void @llvm.lifetime.end.p0(i64 64, ptr nonnull %4)
  ret void
}